; Function Attrs: nounwind sspstrong uwtable
define internal fastcc range(i32 -1, 1) i32 @qcrypto_afsplit_hash(i32 noundef %hash, i64 noundef %blocklen, ptr noundef %block, ptr noundef %errp) unnamed_addr #0 {
entry:
  %out = alloca ptr, align 8
  %outlen = alloca i64, align 8
  %iv = alloca i32, align 4
  %in = alloca [2 x %struct.iovec], align 16
  %call = tail call i64 @qcrypto_hash_digest_len(i32 noundef %hash) #7
  %call.fr = freeze i64 %call
  %div = udiv i64 %blocklen, %call.fr
  %rem = urem i64 %blocklen, %call.fr
  %tobool.not = icmp ne i64 %rem, 0
  %inc = zext i1 %tobool.not to i64
  %hashcount.0 = add i64 %div, %inc
  %cmp24.not = icmp eq i64 %hashcount.0, 0
  br i1 %cmp24.not, label %return, label %for.body.lr.ph

for.body.lr.ph:                                   ; preds = %entry
  %iov_len = getelementptr inbounds nuw i8, ptr %in, i64 8
  %arrayinit.element = getelementptr inbounds nuw i8, ptr %in, i64 16
  %iov_len5 = getelementptr inbounds nuw i8, ptr %in, i64 24
  %sub = add i64 %hashcount.0, -1
  br i1 %tobool.not, label %for.body, label %for.body.us

for.body.us:                                      ; preds = %for.body.lr.ph, %for.inc.us
  %conv26.us = phi i64 [ %conv.us, %for.inc.us ], [ 0, %for.body.lr.ph ]
  %i.025.us = phi i32 [ %inc30.us, %for.inc.us ], [ 0, %for.body.lr.ph ]
  store ptr null, ptr %out, align 8
  store i64 0, ptr %outlen, align 8
  %0 = call noundef i32 @llvm.bswap.i32(i32 %i.025.us)
  store i32 %0, ptr %iv, align 4
  store ptr %iv, ptr %in, align 16
  store i64 4, ptr %iov_len, align 8
  %mul.us = mul i64 %conv26.us, %call.fr
  %add.ptr.us = getelementptr i8, ptr %block, i64 %mul.us
  store ptr %add.ptr.us, ptr %arrayinit.element, align 16
  store i64 %call.fr, ptr %iov_len5, align 8
  %call9.us = call i32 @qcrypto_hash_bytesv(i32 noundef %hash, ptr noundef nonnull %in, i64 noundef 2, ptr noundef nonnull %out, ptr noundef nonnull %outlen, ptr noundef %errp) #7
  %cmp10.us = icmp slt i32 %call9.us, 0
  br i1 %cmp10.us, label %cleanup, label %if.end13.us

if.end13.us:                                      ; preds = %for.body.us
  %1 = load i64, ptr %outlen, align 8
  %cmp14.us = icmp eq i64 %1, %call.fr
  br i1 %cmp14.us, label %for.inc.us, label %if.else17

for.inc.us:                                       ; preds = %if.end13.us
  %2 = load ptr, ptr %out, align 8
  call void @llvm.memcpy.p0.p0.i64(ptr align 1 %add.ptr.us, ptr align 1 %2, i64 %call.fr, i1 false)
  call void @g_free(ptr noundef %2) #7
  %inc30.us = add i32 %i.025.us, 1
  %conv.us = zext i32 %inc30.us to i64
  %cmp.us = icmp ugt i64 %hashcount.0, %conv.us
  br i1 %cmp.us, label %for.body.us, label %return, !llvm.loop !8

for.body:                                         ; preds = %for.body.lr.ph, %for.inc
  %conv26 = phi i64 [ %conv, %for.inc ], [ 0, %for.body.lr.ph ]
  %i.025 = phi i32 [ %inc30, %for.inc ], [ 0, %for.body.lr.ph ]
  store ptr null, ptr %out, align 8
  store i64 0, ptr %outlen, align 8
  %3 = call noundef i32 @llvm.bswap.i32(i32 %i.025)
  store i32 %3, ptr %iv, align 4
  store ptr %iv, ptr %in, align 16
  store i64 4, ptr %iov_len, align 8
  %mul = mul i64 %conv26, %call.fr
  %add.ptr = getelementptr i8, ptr %block, i64 %mul
  store ptr %add.ptr, ptr %arrayinit.element, align 16
  %cmp7 = icmp eq i64 %sub, %conv26
  %spec.select = select i1 %cmp7, i64 %rem, i64 %call.fr
  store i64 %spec.select, ptr %iov_len5, align 8
  %call9 = call i32 @qcrypto_hash_bytesv(i32 noundef %hash, ptr noundef nonnull %in, i64 noundef 2, ptr noundef nonnull %out, ptr noundef nonnull %outlen, ptr noundef %errp) #7
  %cmp10 = icmp slt i32 %call9, 0
  br i1 %cmp10, label %cleanup, label %if.end13

if.end13:                                         ; preds = %for.body
  %4 = load i64, ptr %outlen, align 8
  %cmp14 = icmp eq i64 %4, %call.fr
  br i1 %cmp14, label %for.inc, label %if.else17

if.else17:                                        ; preds = %if.end13.us, %if.end13
  call void @__assert_fail(ptr noundef nonnull @.str, ptr noundef nonnull @.str.1, i32 noundef 79, ptr noundef nonnull @__PRETTY_FUNCTION__.qcrypto_afsplit_hash) #8
  unreachable

cleanup:                                          ; preds = %for.body.us, %for.body
  %out.val = load ptr, ptr %out, align 8
  call void @g_free(ptr noundef %out.val) #7
  br label %return

for.inc:                                          ; preds = %if.end13
  %5 = load ptr, ptr %out, align 8
  call void @llvm.memcpy.p0.p0.i64(ptr align 1 %add.ptr, ptr align 1 %5, i64 %spec.select, i1 false)
  call void @g_free(ptr noundef %5) #7
  %inc30 = add i32 %i.025, 1
  %conv = zext i32 %inc30 to i64
  %cmp = icmp ugt i64 %hashcount.0, %conv
  br i1 %cmp, label %for.body, label %return, !llvm.loop !8

return:                                           ; preds = %for.inc.us, %for.inc, %entry, %cleanup
  %retval.2 = phi i32 [ -1, %cleanup ], [ 0, %entry ], [ 0, %for.inc ], [ 0, %for.inc.us ]
  ret i32 %retval.2
}